target datalayout = "e-m:e-p270:32:32-p271:32:32-p272:64:64-i64:64-i128:128-f80:128-n8:16:32:64-S128"
target triple = "x86_64-pc-linux-gnu"

%"class.ncnn::Mat" = type { ptr, ptr, i64, i32, ptr, i32, i32, i32, i32, i32, i64 }

@stderr = external global ptr, align 8
@.str = private unnamed_addr constant [24 x i8] c"unknown convert type %d\00", align 1
@.str.1 = private unnamed_addr constant [2 x i8] c"\0A\00", align 1

; Function Attrs: alwaysinline mustprogress nounwind uwtable
define linkonce_odr hidden void @_ZN4ncnn3MatC2Ev(ptr noundef nonnull align 8 dereferenceable(72) %0) unnamed_addr #5 comdat align 2 {
  %2 = alloca ptr, align 8
  store ptr %0, ptr %2, align 8, !tbaa !25
  %3 = load ptr, ptr %2, align 8
  %4 = getelementptr inbounds nuw %"class.ncnn::Mat", ptr %3, i32 0, i32 0
  store ptr null, ptr %4, align 8, !tbaa !27
  %5 = getelementptr inbounds nuw %"class.ncnn::Mat", ptr %3, i32 0, i32 1
  store ptr null, ptr %5, align 8, !tbaa !30
  %6 = getelementptr inbounds nuw %"class.ncnn::Mat", ptr %3, i32 0, i32 2
  store i64 0, ptr %6, align 8, !tbaa !31
  %7 = getelementptr inbounds nuw %"class.ncnn::Mat", ptr %3, i32 0, i32 3
  store i32 0, ptr %7, align 8, !tbaa !32
  %8 = getelementptr inbounds nuw %"class.ncnn::Mat", ptr %3, i32 0, i32 4
  store ptr null, ptr %8, align 8, !tbaa !33
  %9 = getelementptr inbounds nuw %"class.ncnn::Mat", ptr %3, i32 0, i32 5
  store i32 0, ptr %9, align 8, !tbaa !34
  %10 = getelementptr inbounds nuw %"class.ncnn::Mat", ptr %3, i32 0, i32 6
  store i32 0, ptr %10, align 4, !tbaa !35
  %11 = getelementptr inbounds nuw %"class.ncnn::Mat", ptr %3, i32 0, i32 7
  store i32 0, ptr %11, align 8, !tbaa !36
  %12 = getelementptr inbounds nuw %"class.ncnn::Mat", ptr %3, i32 0, i32 8
  store i32 0, ptr %12, align 4, !tbaa !37
  %13 = getelementptr inbounds nuw %"class.ncnn::Mat", ptr %3, i32 0, i32 9
  store i32 0, ptr %13, align 8, !tbaa !38
  %14 = getelementptr inbounds nuw %"class.ncnn::Mat", ptr %3, i32 0, i32 10
  store i64 0, ptr %14, align 8, !tbaa !39
  ret void
}

; Function Attrs: mustprogress uwtable
define hidden void @_ZN4ncnn3Mat11from_pixelsEPKhiiiPNS_9AllocatorE(ptr dead_on_unwind noalias writable sret(%"class.ncnn::Mat") align 8 %0, ptr noundef %1, i32 noundef %2, i32 noundef %3, i32 noundef %4, ptr noundef %5) #0 align 2 {
  %7 = alloca ptr, align 8
  %8 = alloca ptr, align 8
  %9 = alloca i32, align 4
  %10 = alloca i32, align 4
  %11 = alloca i32, align 4
  %12 = alloca ptr, align 8
  %13 = alloca i32, align 4
  %14 = alloca i32, align 4
  store ptr %0, ptr %7, align 8
  store ptr %1, ptr %8, align 8, !tbaa !4
  store i32 %2, ptr %9, align 4, !tbaa !9
  store i32 %3, ptr %10, align 4, !tbaa !9
  store i32 %4, ptr %11, align 4, !tbaa !9
  store ptr %5, ptr %12, align 8, !tbaa !21
  call void @llvm.lifetime.start.p0(i64 4, ptr %13) #9
  %15 = load i32, ptr %9, align 4, !tbaa !9
  %16 = and i32 %15, 65535
  store i32 %16, ptr %13, align 4, !tbaa !9
  %17 = load i32, ptr %13, align 4, !tbaa !9
  %18 = icmp eq i32 %17, 1
  br i1 %18, label %22, label %19

19:                                               ; preds = %6
  %20 = load i32, ptr %13, align 4, !tbaa !9
  %21 = icmp eq i32 %20, 2
  br i1 %21, label %22, label %30

22:                                               ; preds = %19, %6
  %23 = load ptr, ptr %8, align 8, !tbaa !4
  %24 = load i32, ptr %9, align 4, !tbaa !9
  %25 = load i32, ptr %10, align 4, !tbaa !9
  %26 = load i32, ptr %11, align 4, !tbaa !9
  %27 = load i32, ptr %10, align 4, !tbaa !9
  %28 = mul nsw i32 %27, 3
  %29 = load ptr, ptr %12, align 8, !tbaa !21
  call void @_ZN4ncnn3Mat11from_pixelsEPKhiiiiPNS_9AllocatorE(ptr dead_on_unwind writable sret(%"class.ncnn::Mat") align 8 %0, ptr noundef %23, i32 noundef %24, i32 noundef %25, i32 noundef %26, i32 noundef %28, ptr noundef %29)
  store i32 1, ptr %14, align 4
  br label %66

30:                                               ; preds = %19
  %31 = load i32, ptr %13, align 4, !tbaa !9
  %32 = icmp eq i32 %31, 3
  br i1 %32, label %33, label %41

33:                                               ; preds = %30
  %34 = load ptr, ptr %8, align 8, !tbaa !4
  %35 = load i32, ptr %9, align 4, !tbaa !9
  %36 = load i32, ptr %10, align 4, !tbaa !9
  %37 = load i32, ptr %11, align 4, !tbaa !9
  %38 = load i32, ptr %10, align 4, !tbaa !9
  %39 = mul nsw i32 %38, 1
  %40 = load ptr, ptr %12, align 8, !tbaa !21
  call void @_ZN4ncnn3Mat11from_pixelsEPKhiiiiPNS_9AllocatorE(ptr dead_on_unwind writable sret(%"class.ncnn::Mat") align 8 %0, ptr noundef %34, i32 noundef %35, i32 noundef %36, i32 noundef %37, i32 noundef %39, ptr noundef %40)
  store i32 1, ptr %14, align 4
  br label %66

41:                                               ; preds = %30
  %42 = load i32, ptr %13, align 4, !tbaa !9
  %43 = icmp eq i32 %42, 4
  br i1 %43, label %47, label %44

44:                                               ; preds = %41
  %45 = load i32, ptr %13, align 4, !tbaa !9
  %46 = icmp eq i32 %45, 5
  br i1 %46, label %47, label %55

47:                                               ; preds = %44, %41
  %48 = load ptr, ptr %8, align 8, !tbaa !4
  %49 = load i32, ptr %9, align 4, !tbaa !9
  %50 = load i32, ptr %10, align 4, !tbaa !9
  %51 = load i32, ptr %11, align 4, !tbaa !9
  %52 = load i32, ptr %10, align 4, !tbaa !9
  %53 = mul nsw i32 %52, 4
  %54 = load ptr, ptr %12, align 8, !tbaa !21
  call void @_ZN4ncnn3Mat11from_pixelsEPKhiiiiPNS_9AllocatorE(ptr dead_on_unwind writable sret(%"class.ncnn::Mat") align 8 %0, ptr noundef %48, i32 noundef %49, i32 noundef %50, i32 noundef %51, i32 noundef %53, ptr noundef %54)
  store i32 1, ptr %14, align 4
  br label %66

55:                                               ; preds = %44
  br label %56

56:                                               ; preds = %55
  br label %57

57:                                               ; preds = %56
  br label %58

58:                                               ; preds = %57
  %59 = load ptr, ptr @stderr, align 8, !tbaa !23
  %60 = load i32, ptr %9, align 4, !tbaa !9
  %61 = call i32 (ptr, ptr, ...) @fprintf(ptr noundef %59, ptr noundef @.str, i32 noundef %60) #9
  %62 = load ptr, ptr @stderr, align 8, !tbaa !23
  %63 = call i32 (ptr, ptr, ...) @fprintf(ptr noundef %62, ptr noundef @.str.1) #9
  br label %64

64:                                               ; preds = %58
  br label %65

65:                                               ; preds = %64
  call void @_ZN4ncnn3MatC2Ev(ptr noundef nonnull align 8 dereferenceable(72) %0)
  store i32 1, ptr %14, align 4
  br label %66

66:                                               ; preds = %65, %47, %33, %22
  call void @llvm.lifetime.end.p0(i64 4, ptr %13) #9
  ret void
}