; Function Attrs: mustprogress uwtable
define hidden void @_ZN4ncnn3Mat11from_pixelsEPKhiiiPNS_9AllocatorE(ptr dead_on_unwind noalias writable sret(%"class.ncnn::Mat") align 8 initializes((0, 28), (32, 60), (64, 72)) %0, ptr noundef %1, i32 noundef %2, i32 noundef %3, i32 noundef %4, ptr noundef %5) local_unnamed_addr #2 align 2 {
  %7 = and i32 %2, 65535
  %8 = add nsw i32 %7, -1
  %or.cond = icmp ult i32 %8, 2
  br i1 %or.cond, label %9, label %11

9:                                                ; preds = %6
  %10 = mul nsw i32 %3, 3
  tail call void @_ZN4ncnn3Mat11from_pixelsEPKhiiiiPNS_9AllocatorE(ptr dead_on_unwind writable sret(%"class.ncnn::Mat") align 8 %0, ptr noundef %1, i32 noundef %2, i32 noundef %3, i32 noundef %4, i32 noundef %10, ptr noundef %5)
  br label %24

11:                                               ; preds = %6
  %12 = icmp eq i32 %7, 3
  br i1 %12, label %13, label %14

13:                                               ; preds = %11
  tail call void @_ZN4ncnn3Mat11from_pixelsEPKhiiiiPNS_9AllocatorE(ptr dead_on_unwind writable sret(%"class.ncnn::Mat") align 8 %0, ptr noundef %1, i32 noundef %2, i32 noundef %3, i32 noundef %4, i32 noundef %3, ptr noundef %5)
  br label %24

14:                                               ; preds = %11
  %15 = and i32 %2, 65534
  %or.cond3 = icmp eq i32 %15, 4
  br i1 %or.cond3, label %16, label %18

16:                                               ; preds = %14
  %17 = shl nsw i32 %3, 2
  tail call void @_ZN4ncnn3Mat11from_pixelsEPKhiiiiPNS_9AllocatorE(ptr dead_on_unwind writable sret(%"class.ncnn::Mat") align 8 %0, ptr noundef %1, i32 noundef %2, i32 noundef %3, i32 noundef %4, i32 noundef %17, ptr noundef %5)
  br label %24

18:                                               ; preds = %14
  %19 = load ptr, ptr @stderr, align 8, !tbaa !14
  %20 = tail call i32 (ptr, ptr, ...) @fprintf(ptr noundef %19, ptr noundef nonnull @.str, i32 noundef %2) #13
  %21 = load ptr, ptr @stderr, align 8, !tbaa !14
  %fputc = tail call i32 @fputc(i32 10, ptr %21)
  %22 = getelementptr inbounds nuw i8, ptr %0, i64 32
  %23 = getelementptr inbounds nuw i8, ptr %0, i64 64
  store i64 0, ptr %23, align 8, !tbaa !17
  tail call void @llvm.memset.p0.i64(ptr noundef nonnull align 8 dereferenceable(28) %0, i8 0, i64 28, i1 false)
  tail call void @llvm.memset.p0.i64(ptr noundef nonnull align 8 dereferenceable(28) %22, i8 0, i64 28, i1 false)
  br label %24

24:                                               ; preds = %18, %16, %13, %9
  ret void
}